target datalayout = "e-m:e-p270:32:32-p271:32:32-p272:64:64-i64:64-i128:128-f80:128-n8:16:32:64-S128"
target triple = "x86_64-pc-linux-gnu"

%struct.avifRWData = type { ptr, i64 }
%struct.avifMeta = type { %struct.avifDecoderItemArray, %struct.avifPropertyArray, %struct.avifRWData, i32, i32 }
%struct.avifDecoderItemArray = type { ptr, i32, i32, i32 }
%struct.avifPropertyArray = type { ptr, i32, i32, i32 }
%struct.avifDecoderItem = type { i32, ptr, [4 x i8], i64, i32, i32, i32, %struct.avifContentType, %struct.avifPropertyArray, %struct.avifExtentArray, %struct.avifRWData, i32, i32, i32, i32, i32, i32, i32, i32, i32, i32, i32 }
%struct.avifContentType = type { [64 x i8] }
%struct.avifExtentArray = type { ptr, i32, i32, i32 }

; Function Attrs: nounwind uwtable
define internal void @avifMetaDestroy(ptr noundef %0) #0 {
  %2 = alloca ptr, align 8
  %3 = alloca i32, align 4
  %4 = alloca ptr, align 8
  store ptr %0, ptr %2, align 8
  store i32 0, ptr %3, align 4
  br label %5

5:                                                ; preds = %32, %1
  %6 = load i32, ptr %3, align 4
  %7 = load ptr, ptr %2, align 8
  %8 = getelementptr inbounds nuw %struct.avifMeta, ptr %7, i32 0, i32 0
  %9 = getelementptr inbounds nuw %struct.avifDecoderItemArray, ptr %8, i32 0, i32 2
  %10 = load i32, ptr %9, align 4
  %11 = icmp ult i32 %6, %10
  br i1 %11, label %12, label %35

12:                                               ; preds = %5
  %13 = load ptr, ptr %2, align 8
  %14 = getelementptr inbounds nuw %struct.avifMeta, ptr %13, i32 0, i32 0
  %15 = getelementptr inbounds nuw %struct.avifDecoderItemArray, ptr %14, i32 0, i32 0
  %16 = load ptr, ptr %15, align 8
  %17 = load i32, ptr %3, align 4
  %18 = zext i32 %17 to i64
  %19 = getelementptr inbounds %struct.avifDecoderItem, ptr %16, i64 %18
  store ptr %19, ptr %4, align 8
  %20 = load ptr, ptr %4, align 8
  %21 = getelementptr inbounds nuw %struct.avifDecoderItem, ptr %20, i32 0, i32 8
  call void @avifArrayDestroy(ptr noundef %21)
  %22 = load ptr, ptr %4, align 8
  %23 = getelementptr inbounds nuw %struct.avifDecoderItem, ptr %22, i32 0, i32 9
  call void @avifArrayDestroy(ptr noundef %23)
  %24 = load ptr, ptr %4, align 8
  %25 = getelementptr inbounds nuw %struct.avifDecoderItem, ptr %24, i32 0, i32 11
  %26 = load i32, ptr %25, align 8
  %27 = icmp ne i32 %26, 0
  br i1 %27, label %28, label %31

28:                                               ; preds = %12
  %29 = load ptr, ptr %4, align 8
  %30 = getelementptr inbounds nuw %struct.avifDecoderItem, ptr %29, i32 0, i32 10
  call void @avifRWDataFree(ptr noundef %30)
  br label %31

31:                                               ; preds = %28, %12
  br label %32

32:                                               ; preds = %31
  %33 = load i32, ptr %3, align 4
  %34 = add i32 %33, 1
  store i32 %34, ptr %3, align 4
  br label %5, !llvm.loop !57

35:                                               ; preds = %5
  %36 = load ptr, ptr %2, align 8
  %37 = getelementptr inbounds nuw %struct.avifMeta, ptr %36, i32 0, i32 0
  call void @avifArrayDestroy(ptr noundef %37)
  %38 = load ptr, ptr %2, align 8
  %39 = getelementptr inbounds nuw %struct.avifMeta, ptr %38, i32 0, i32 1
  call void @avifArrayDestroy(ptr noundef %39)
  %40 = load ptr, ptr %2, align 8
  %41 = getelementptr inbounds nuw %struct.avifMeta, ptr %40, i32 0, i32 2
  call void @avifRWDataFree(ptr noundef %41)
  %42 = load ptr, ptr %2, align 8
  call void @avifFree(ptr noundef %42)
  ret void
}