; Function Attrs: nounwind uwtable
define internal fastcc void @avifMetaDestroy(ptr noundef %0) unnamed_addr #0 {
  %2 = getelementptr inbounds nuw i8, ptr %0, i64 12
  %3 = load i32, ptr %2, align 4
  %.not13 = icmp eq i32 %3, 0
  br i1 %.not13, label %._crit_edge, label %.lr.ph

.lr.ph:                                           ; preds = %1, %12
  %indvars.iv = phi i64 [ %indvars.iv.next, %12 ], [ 0, %1 ]
  %4 = load ptr, ptr %0, align 8
  %5 = getelementptr inbounds nuw %struct.avifDecoderItem, ptr %4, i64 %indvars.iv
  %6 = getelementptr inbounds nuw i8, ptr %5, i64 112
  tail call void @avifArrayDestroy(ptr noundef nonnull %6) #13
  %7 = getelementptr inbounds nuw i8, ptr %5, i64 136
  tail call void @avifArrayDestroy(ptr noundef nonnull %7) #13
  %8 = getelementptr inbounds nuw i8, ptr %5, i64 176
  %9 = load i32, ptr %8, align 8
  %.not = icmp eq i32 %9, 0
  br i1 %.not, label %12, label %10

10:                                               ; preds = %.lr.ph
  %11 = getelementptr inbounds nuw i8, ptr %5, i64 160
  tail call void @avifRWDataFree(ptr noundef nonnull %11) #13
  br label %12

12:                                               ; preds = %.lr.ph, %10
  %indvars.iv.next = add nuw nsw i64 %indvars.iv, 1
  %13 = load i32, ptr %2, align 4
  %14 = zext i32 %13 to i64
  %15 = icmp samesign ult i64 %indvars.iv.next, %14
  br i1 %15, label %.lr.ph, label %._crit_edge, !llvm.loop !72

._crit_edge:                                      ; preds = %12, %1
  tail call void @avifArrayDestroy(ptr noundef nonnull %0) #13
  %16 = getelementptr inbounds nuw i8, ptr %0, i64 24
  tail call void @avifArrayDestroy(ptr noundef nonnull %16) #13
  %17 = getelementptr inbounds nuw i8, ptr %0, i64 48
  tail call void @avifRWDataFree(ptr noundef nonnull %17) #13
  tail call void @avifFree(ptr noundef nonnull %0) #13
  ret void
}